; Function Attrs: mustprogress nofree norecurse nosync nounwind willreturn memory(read, inaccessiblemem: none) uwtable
define hidden noundef double @_ZNK14TravelSalesman6energyEv(ptr nocapture noundef nonnull readonly align 8 dereferenceable(40) %0) local_unnamed_addr #4 align 2 {
  %2 = getelementptr inbounds i8, ptr %0, i64 8
  %3 = load ptr, ptr %2, align 8
  %4 = getelementptr inbounds i8, ptr %3, i64 8
  %5 = load ptr, ptr %4, align 8
  %6 = load ptr, ptr %3, align 8
  %.not = icmp eq ptr %5, %6
  br i1 %.not, label %._crit_edge, label %.lr.ph

.lr.ph:                                           ; preds = %1
  %7 = ptrtoint ptr %5 to i64
  %8 = ptrtoint ptr %6 to i64
  %9 = sub i64 %7, %8
  %10 = ashr exact i64 %9, 2
  %11 = load ptr, ptr %0, align 8
  %12 = load ptr, ptr %11, align 8
  %umax = tail call i64 @llvm.umax.i64(i64 %10, i64 1)
  br label %13

13:                                               ; preds = %.lr.ph, %13
  %.013 = phi i64 [ 0, %.lr.ph ], [ %28, %13 ]
  %.0612 = phi double [ 0.000000e+00, %.lr.ph ], [ %27, %13 ]
  %14 = getelementptr inbounds %"class.cv::Point_", ptr %12, i64 %.013
  %15 = getelementptr inbounds i32, ptr %6, i64 %.013
  %16 = load i32, ptr %15, align 4
  %17 = sext i32 %16 to i64
  %18 = getelementptr inbounds %"class.cv::Point_", ptr %12, i64 %17
  %.val = load i32, ptr %14, align 4
  %19 = getelementptr i8, ptr %14, i64 4
  %.val7 = load i32, ptr %19, align 4
  %.val8 = load i32, ptr %18, align 4
  %20 = getelementptr i8, ptr %18, i64 4
  %.val9 = load i32, ptr %20, align 4
  %21 = sub nsw i32 %.val, %.val8
  %22 = sub nsw i32 %.val7, %.val9
  %23 = sitofp i32 %21 to double
  %24 = sitofp i32 %22 to double
  %25 = fmul double %24, %24
  %26 = tail call double @llvm.fmuladd.f64(double %23, double %23, double %25)
  %sqrt.i = tail call noundef double @llvm.sqrt.f64(double %26)
  %27 = fadd double %.0612, %sqrt.i
  %28 = add nuw i64 %.013, 1
  %exitcond.not = icmp eq i64 %28, %umax
  br i1 %exitcond.not, label %._crit_edge, label %13, !llvm.loop !5

._crit_edge:                                      ; preds = %13, %1
  %.06.lcssa = phi double [ 0.000000e+00, %1 ], [ %27, %13 ]
  ret double %.06.lcssa
}